target datalayout = "e-m:e-p270:32:32-p271:32:32-p272:64:64-i64:64-i128:128-f80:128-n8:16:32:64-S128"
target triple = "x86_64-pc-linux-gnu"

%struct.archive_read = type { %struct.archive, ptr, i32, i64, i64, %struct.archive_read_client, [16 x %struct.archive_read_filter_bidder], ptr, i32, i64, i32, i32, [16 x %struct.archive_format_descriptor], ptr, ptr, ptr, %struct.anon }
%struct.archive = type { i32, i32, ptr, i32, ptr, i32, i32, ptr, %struct.archive_string, ptr, i32, i32, ptr, ptr, i64, i64, i64, i8, i64 }
%struct.archive_string = type { ptr, i64, i64 }
%struct.archive_read_client = type { ptr, ptr, ptr, ptr, ptr, ptr, i32, i32, i64, ptr }
%struct.archive_read_filter_bidder = type { ptr, ptr, ptr }
%struct.archive_format_descriptor = type { ptr, ptr, ptr, ptr, ptr, ptr, ptr, ptr, ptr, ptr, ptr }
%struct.anon = type { ptr, ptr, i32, ptr, ptr }
%struct.zip = type { %struct.archive_string, i64, i64, i64, i64, i32, ptr, %struct.archive_rb_tree, %struct.archive_rb_tree, i64, ptr, i64, i64, i64, i64, ptr, i8, i8, i8, ptr, i64, %struct.z_stream_s, i8, %struct.lzma_stream, i8, %struct.bz_stream, i8, ptr, i8, %struct.IByteIn, i64, %struct.CPpmd8, i8, i8, ptr, ptr, ptr, i32, i32, i8, ptr, ptr, i64, i64, i64, %struct.trad_enc_ctx, i8, %struct.archive_crypto_ctx, i8, ptr, i8, i32, i32, i32, i32, i32, i32, i32, ptr, ptr, ptr }
%struct.archive_rb_tree = type { ptr, ptr }
%struct.z_stream_s = type { ptr, i32, i64, ptr, i32, i64, ptr, ptr, ptr, ptr, ptr, i32, i64, i64 }
%struct.lzma_stream = type { ptr, i64, i64, ptr, i64, i64, ptr, ptr, ptr, ptr, ptr, ptr, i64, i64, i64, i64, i32, i32 }
%struct.bz_stream = type { ptr, i32, i32, i32, ptr, i32, i32, i32, ptr, ptr, ptr, ptr }
%struct.IByteIn = type { ptr, ptr }
%struct.CPpmd8 = type { ptr, ptr, ptr, i32, i32, i32, i32, i32, i32, i32, i32, ptr, ptr, ptr, ptr, ptr, i32, i32, i32, i32, i32, %union.anon, [38 x i8], [128 x i8], [38 x i32], [38 x i32], [256 x i8], [260 x i8], %struct.CPpmd_See, [24 x [32 x %struct.CPpmd_See]], [25 x [64 x i16]] }
%union.anon = type { ptr }
%struct.CPpmd_See = type { i16, i8, i8 }
%struct.trad_enc_ctx = type { [3 x i32] }
%struct.archive_crypto_ctx = type { ptr, ptr, [32 x i8], i32, [16 x i8], [16 x i8], i32 }

; Function Attrs: nounwind uwtable
define internal i32 @archive_read_format_zip_has_encrypted_entries(ptr noundef %0) #0 {
  %2 = alloca i32, align 4
  %3 = alloca ptr, align 8
  %4 = alloca ptr, align 8
  %5 = alloca i32, align 4
  store ptr %0, ptr %3, align 8, !tbaa !11
  %6 = load ptr, ptr %3, align 8, !tbaa !11
  %7 = icmp ne ptr %6, null
  br i1 %7, label %8, label %29

8:                                                ; preds = %1
  %9 = load ptr, ptr %3, align 8, !tbaa !11
  %10 = getelementptr inbounds nuw %struct.archive_read, ptr %9, i32 0, i32 13
  %11 = load ptr, ptr %10, align 8, !tbaa !47
  %12 = icmp ne ptr %11, null
  br i1 %12, label %13, label %29

13:                                               ; preds = %8
  call void @llvm.lifetime.start.p0(i64 8, ptr %4) #11
  %14 = load ptr, ptr %3, align 8, !tbaa !11
  %15 = getelementptr inbounds nuw %struct.archive_read, ptr %14, i32 0, i32 13
  %16 = load ptr, ptr %15, align 8, !tbaa !47
  %17 = getelementptr inbounds nuw %struct.archive_format_descriptor, ptr %16, i32 0, i32 0
  %18 = load ptr, ptr %17, align 8, !tbaa !60
  store ptr %18, ptr %4, align 8, !tbaa !13
  %19 = load ptr, ptr %4, align 8, !tbaa !13
  %20 = icmp ne ptr %19, null
  br i1 %20, label %21, label %25

21:                                               ; preds = %13
  %22 = load ptr, ptr %4, align 8, !tbaa !13
  %23 = getelementptr inbounds nuw %struct.zip, ptr %22, i32 0, i32 5
  %24 = load i32, ptr %23, align 8, !tbaa !41
  store i32 %24, ptr %2, align 4
  store i32 1, ptr %5, align 4
  br label %26

25:                                               ; preds = %13
  store i32 0, ptr %5, align 4
  br label %26

26:                                               ; preds = %25, %21
  call void @llvm.lifetime.end.p0(i64 8, ptr %4) #11
  %27 = load i32, ptr %5, align 4
  switch i32 %27, label %32 [
    i32 0, label %28
    i32 1, label %30
  ]

28:                                               ; preds = %26
  br label %29

29:                                               ; preds = %28, %8, %1
  store i32 -1, ptr %2, align 4
  br label %30

30:                                               ; preds = %29, %26
  %31 = load i32, ptr %2, align 4
  ret i32 %31

32:                                               ; preds = %26
  unreachable
}